target datalayout = "e-m:e-p270:32:32-p271:32:32-p272:64:64-i64:64-i128:128-f80:128-n8:16:32:64-S128"
target triple = "x86_64-unknown-linux-gnu"

%"class.dimacs::stream_buffer" = type { ptr, i32, i32 }

@_ZTIN6dimacs9lex_errorE = linkonce_odr hidden constant { ptr, ptr } { ptr getelementptr inbounds (ptr, ptr @_ZTVN10__cxxabiv117__class_type_infoE, i64 2), ptr @_ZTSN6dimacs9lex_errorE }, comdat, align 8
@.str.6 = private unnamed_addr constant [27 x i8] c"(error, \22unexpected char: \00", align 1
@.str.7 = private unnamed_addr constant [8 x i8] c" line: \00", align 1
@.str.8 = private unnamed_addr constant [4 x i8] c"\22)\0A\00", align 1

; Function Attrs: mustprogress nounwind uwtable
define internal noundef zeroext i1 @_ZL13is_whitespaceIN6dimacs13stream_bufferEEbRT_(ptr noundef nonnull align 8 dereferenceable(16) %in) #4 {
entry:
  %in.addr = alloca ptr, align 8
  store ptr %in, ptr %in.addr, align 8
  %0 = load ptr, ptr %in.addr, align 8
  %call = call noundef i32 @_ZNK6dimacs13stream_bufferdeEv(ptr noundef nonnull align 8 dereferenceable(16) %0)
  %cmp = icmp sge i32 %call, 9
  br i1 %cmp, label %land.lhs.true, label %lor.rhs

land.lhs.true:                                    ; preds = %entry
  %1 = load ptr, ptr %in.addr, align 8
  %call1 = call noundef i32 @_ZNK6dimacs13stream_bufferdeEv(ptr noundef nonnull align 8 dereferenceable(16) %1)
  %cmp2 = icmp sle i32 %call1, 13
  br i1 %cmp2, label %lor.end, label %lor.rhs

lor.rhs:                                          ; preds = %land.lhs.true, %entry
  %2 = load ptr, ptr %in.addr, align 8
  %call3 = call noundef i32 @_ZNK6dimacs13stream_bufferdeEv(ptr noundef nonnull align 8 dereferenceable(16) %2)
  %cmp4 = icmp eq i32 %call3, 32
  br label %lor.end

lor.end:                                          ; preds = %lor.rhs, %land.lhs.true
  %3 = phi i1 [ true, %land.lhs.true ], [ %cmp4, %lor.rhs ]
  ret i1 %3
}

; Function Attrs: mustprogress nounwind uwtable
define linkonce_odr hidden noundef i32 @_ZNK6dimacs13stream_buffer4lineEv(ptr noundef nonnull align 8 dereferenceable(16) %this) #4 comdat align 2 {
entry:
  %this.addr = alloca ptr, align 8
  store ptr %this, ptr %this.addr, align 8
  %this1 = load ptr, ptr %this.addr, align 8
  %m_line = getelementptr inbounds %"class.dimacs::stream_buffer", ptr %this1, i32 0, i32 2
  %0 = load i32, ptr %m_line, align 4
  ret i32 %0
}

; Function Attrs: mustprogress uwtable
define linkonce_odr hidden void @_ZN6dimacs13stream_bufferppEv(ptr noundef nonnull align 8 dereferenceable(16) %this) #5 comdat align 2 {
entry:
  %this.addr = alloca ptr, align 8
  store ptr %this, ptr %this.addr, align 8
  %this1 = load ptr, ptr %this.addr, align 8
  %m_stream = getelementptr inbounds %"class.dimacs::stream_buffer", ptr %this1, i32 0, i32 0
  %0 = load ptr, ptr %m_stream, align 8
  %call = call noundef i32 @_ZNSi3getEv(ptr noundef nonnull align 8 dereferenceable(16) %0)
  %m_val = getelementptr inbounds %"class.dimacs::stream_buffer", ptr %this1, i32 0, i32 1
  store i32 %call, ptr %m_val, align 8
  %m_val2 = getelementptr inbounds %"class.dimacs::stream_buffer", ptr %this1, i32 0, i32 1
  %1 = load i32, ptr %m_val2, align 8
  %cmp = icmp eq i32 %1, 10
  br i1 %cmp, label %if.then, label %if.end

if.then:                                          ; preds = %entry
  %m_line = getelementptr inbounds %"class.dimacs::stream_buffer", ptr %this1, i32 0, i32 2
  %2 = load i32, ptr %m_line, align 4
  %inc = add i32 %2, 1
  store i32 %inc, ptr %m_line, align 4
  br label %if.end

if.end:                                           ; preds = %if.then, %entry
  ret void
}

; Function Attrs: mustprogress nounwind uwtable
define linkonce_odr hidden noundef i32 @_ZNK6dimacs13stream_bufferdeEv(ptr noundef nonnull align 8 dereferenceable(16) %this) #4 comdat align 2 {
entry:
  %this.addr = alloca ptr, align 8
  store ptr %this, ptr %this.addr, align 8
  %this1 = load ptr, ptr %this.addr, align 8
  %m_val = getelementptr inbounds %"class.dimacs::stream_buffer", ptr %this1, i32 0, i32 1
  %0 = load i32, ptr %m_val, align 8
  ret i32 %0
}

; Function Attrs: mustprogress uwtable
define internal void @_ZL15skip_whitespaceIN6dimacs13stream_bufferEEvRT_(ptr noundef nonnull align 8 dereferenceable(16) %in) #5 {
entry:
  %in.addr = alloca ptr, align 8
  store ptr %in, ptr %in.addr, align 8
  br label %while.cond

while.cond:                                       ; preds = %while.body, %entry
  %0 = load ptr, ptr %in.addr, align 8
  %call = call noundef zeroext i1 @_ZL13is_whitespaceIN6dimacs13stream_bufferEEbRT_(ptr noundef nonnull align 8 dereferenceable(16) %0)
  br i1 %call, label %while.body, label %while.end

while.body:                                       ; preds = %while.cond
  %1 = load ptr, ptr %in.addr, align 8
  call void @_ZN6dimacs13stream_bufferppEv(ptr noundef nonnull align 8 dereferenceable(16) %1)
  br label %while.cond, !llvm.loop !9

while.end:                                        ; preds = %while.cond
  ret void
}

; Function Attrs: mustprogress uwtable
define internal noundef i32 @_ZL9parse_intIN6dimacs13stream_bufferEEiRT_RSo(ptr noundef nonnull align 8 dereferenceable(16) %in, ptr noundef nonnull align 8 dereferenceable(8) %err) #5 {
entry:
  %in.addr = alloca ptr, align 8
  %err.addr = alloca ptr, align 8
  %val = alloca i32, align 4
  %neg = alloca i8, align 1
  store ptr %in, ptr %in.addr, align 8
  store ptr %err, ptr %err.addr, align 8
  store i32 0, ptr %val, align 4
  store i8 0, ptr %neg, align 1
  %0 = load ptr, ptr %in.addr, align 8
  call void @_ZL15skip_whitespaceIN6dimacs13stream_bufferEEvRT_(ptr noundef nonnull align 8 dereferenceable(16) %0)
  %1 = load ptr, ptr %in.addr, align 8
  %call = call noundef i32 @_ZNK6dimacs13stream_bufferdeEv(ptr noundef nonnull align 8 dereferenceable(16) %1)
  %cmp = icmp eq i32 %call, 45
  br i1 %cmp, label %if.then, label %if.else

if.then:                                          ; preds = %entry
  store i8 1, ptr %neg, align 1
  %2 = load ptr, ptr %in.addr, align 8
  call void @_ZN6dimacs13stream_bufferppEv(ptr noundef nonnull align 8 dereferenceable(16) %2)
  br label %if.end4

if.else:                                          ; preds = %entry
  %3 = load ptr, ptr %in.addr, align 8
  %call1 = call noundef i32 @_ZNK6dimacs13stream_bufferdeEv(ptr noundef nonnull align 8 dereferenceable(16) %3)
  %cmp2 = icmp eq i32 %call1, 43
  br i1 %cmp2, label %if.then3, label %if.end

if.then3:                                         ; preds = %if.else
  %4 = load ptr, ptr %in.addr, align 8
  call void @_ZN6dimacs13stream_bufferppEv(ptr noundef nonnull align 8 dereferenceable(16) %4)
  br label %if.end

if.end:                                           ; preds = %if.then3, %if.else
  br label %if.end4

if.end4:                                          ; preds = %if.end, %if.then
  %5 = load ptr, ptr %in.addr, align 8
  %call5 = call noundef i32 @_ZNK6dimacs13stream_bufferdeEv(ptr noundef nonnull align 8 dereferenceable(16) %5)
  %cmp6 = icmp slt i32 %call5, 48
  br i1 %cmp6, label %if.then9, label %lor.lhs.false

lor.lhs.false:                                    ; preds = %if.end4
  %6 = load ptr, ptr %in.addr, align 8
  %call7 = call noundef i32 @_ZNK6dimacs13stream_bufferdeEv(ptr noundef nonnull align 8 dereferenceable(16) %6)
  %cmp8 = icmp sgt i32 %call7, 57
  br i1 %cmp8, label %if.then9, label %if.end31

if.then9:                                         ; preds = %lor.lhs.false, %if.end4
  %7 = load ptr, ptr %in.addr, align 8
  %call10 = call noundef i32 @_ZNK6dimacs13stream_bufferdeEv(ptr noundef nonnull align 8 dereferenceable(16) %7)
  %cmp11 = icmp sle i32 20, %call10
  br i1 %cmp11, label %land.lhs.true, label %if.else22

land.lhs.true:                                    ; preds = %if.then9
  %8 = load ptr, ptr %in.addr, align 8
  %call12 = call noundef i32 @_ZNK6dimacs13stream_bufferdeEv(ptr noundef nonnull align 8 dereferenceable(16) %8)
  %cmp13 = icmp slt i32 %call12, 128
  br i1 %cmp13, label %if.then14, label %if.else22

if.then14:                                        ; preds = %land.lhs.true
  %9 = load ptr, ptr %err.addr, align 8
  %call15 = call noundef nonnull align 8 dereferenceable(8) ptr @_ZStlsISt11char_traitsIcEERSt13basic_ostreamIcT_ES5_PKc(ptr noundef nonnull align 8 dereferenceable(8) %9, ptr noundef @.str.6)
  %10 = load ptr, ptr %in.addr, align 8
  %call16 = call noundef i32 @_ZNK6dimacs13stream_bufferdeEv(ptr noundef nonnull align 8 dereferenceable(16) %10)
  %conv = trunc i32 %call16 to i8
  %call17 = call noundef nonnull align 8 dereferenceable(8) ptr @_ZStlsISt11char_traitsIcEERSt13basic_ostreamIcT_ES5_c(ptr noundef nonnull align 8 dereferenceable(8) %call15, i8 noundef signext %conv)
  %call18 = call noundef nonnull align 8 dereferenceable(8) ptr @_ZStlsISt11char_traitsIcEERSt13basic_ostreamIcT_ES5_PKc(ptr noundef nonnull align 8 dereferenceable(8) %call17, ptr noundef @.str.7)
  %11 = load ptr, ptr %in.addr, align 8
  %call19 = call noundef i32 @_ZNK6dimacs13stream_buffer4lineEv(ptr noundef nonnull align 8 dereferenceable(16) %11)
  %call20 = call noundef nonnull align 8 dereferenceable(8) ptr @_ZNSolsEj(ptr noundef nonnull align 8 dereferenceable(8) %call18, i32 noundef %call19)
  %call21 = call noundef nonnull align 8 dereferenceable(8) ptr @_ZStlsISt11char_traitsIcEERSt13basic_ostreamIcT_ES5_PKc(ptr noundef nonnull align 8 dereferenceable(8) %call20, ptr noundef @.str.8)
  br label %if.end30

if.else22:                                        ; preds = %land.lhs.true, %if.then9
  %12 = load ptr, ptr %err.addr, align 8
  %call23 = call noundef nonnull align 8 dereferenceable(8) ptr @_ZStlsISt11char_traitsIcEERSt13basic_ostreamIcT_ES5_PKc(ptr noundef nonnull align 8 dereferenceable(8) %12, ptr noundef @.str.6)
  %13 = load ptr, ptr %in.addr, align 8
  %call24 = call noundef i32 @_ZNK6dimacs13stream_bufferdeEv(ptr noundef nonnull align 8 dereferenceable(16) %13)
  %call25 = call noundef nonnull align 8 dereferenceable(8) ptr @_ZNSolsEi(ptr noundef nonnull align 8 dereferenceable(8) %call23, i32 noundef %call24)
  %call26 = call noundef nonnull align 8 dereferenceable(8) ptr @_ZStlsISt11char_traitsIcEERSt13basic_ostreamIcT_ES5_PKc(ptr noundef nonnull align 8 dereferenceable(8) %call25, ptr noundef @.str.7)
  %14 = load ptr, ptr %in.addr, align 8
  %call27 = call noundef i32 @_ZNK6dimacs13stream_buffer4lineEv(ptr noundef nonnull align 8 dereferenceable(16) %14)
  %call28 = call noundef nonnull align 8 dereferenceable(8) ptr @_ZNSolsEj(ptr noundef nonnull align 8 dereferenceable(8) %call26, i32 noundef %call27)
  %call29 = call noundef nonnull align 8 dereferenceable(8) ptr @_ZStlsISt11char_traitsIcEERSt13basic_ostreamIcT_ES5_PKc(ptr noundef nonnull align 8 dereferenceable(8) %call28, ptr noundef @.str.8)
  br label %if.end30

if.end30:                                         ; preds = %if.else22, %if.then14
  %exception = call ptr @__cxa_allocate_exception(i64 1) #3
  call void @__cxa_throw(ptr %exception, ptr @_ZTIN6dimacs9lex_errorE, ptr null) #13
  unreachable

if.end31:                                         ; preds = %lor.lhs.false
  br label %while.cond

while.cond:                                       ; preds = %while.body, %if.end31
  %15 = load ptr, ptr %in.addr, align 8
  %call32 = call noundef i32 @_ZNK6dimacs13stream_bufferdeEv(ptr noundef nonnull align 8 dereferenceable(16) %15)
  %cmp33 = icmp sge i32 %call32, 48
  br i1 %cmp33, label %land.rhs, label %land.end

land.rhs:                                         ; preds = %while.cond
  %16 = load ptr, ptr %in.addr, align 8
  %call34 = call noundef i32 @_ZNK6dimacs13stream_bufferdeEv(ptr noundef nonnull align 8 dereferenceable(16) %16)
  %cmp35 = icmp sle i32 %call34, 57
  br label %land.end

land.end:                                         ; preds = %land.rhs, %while.cond
  %17 = phi i1 [ false, %while.cond ], [ %cmp35, %land.rhs ]
  br i1 %17, label %while.body, label %while.end

while.body:                                       ; preds = %land.end
  %18 = load i32, ptr %val, align 4
  %mul = mul nsw i32 %18, 10
  %19 = load ptr, ptr %in.addr, align 8
  %call36 = call noundef i32 @_ZNK6dimacs13stream_bufferdeEv(ptr noundef nonnull align 8 dereferenceable(16) %19)
  %sub = sub nsw i32 %call36, 48
  %add = add nsw i32 %mul, %sub
  store i32 %add, ptr %val, align 4
  %20 = load ptr, ptr %in.addr, align 8
  call void @_ZN6dimacs13stream_bufferppEv(ptr noundef nonnull align 8 dereferenceable(16) %20)
  br label %while.cond, !llvm.loop !15

while.end:                                        ; preds = %land.end
  %21 = load i8, ptr %neg, align 1
  %tobool = trunc i8 %21 to i1
  br i1 %tobool, label %cond.true, label %cond.false

cond.true:                                        ; preds = %while.end
  %22 = load i32, ptr %val, align 4
  %sub37 = sub nsw i32 0, %22
  br label %cond.end

cond.false:                                       ; preds = %while.end
  %23 = load i32, ptr %val, align 4
  br label %cond.end

cond.end:                                         ; preds = %cond.false, %cond.true
  %cond = phi i32 [ %sub37, %cond.true ], [ %23, %cond.false ]
  ret i32 %cond
}