; Function Attrs: mustprogress uwtable
define internal fastcc noundef i32 @_ZL9parse_intIN6dimacs13stream_bufferEEiRT_RSo(ptr nocapture noundef nonnull align 8 dereferenceable(16) %in, ptr noundef nonnull align 8 dereferenceable(8) %err) unnamed_addr #3 {
entry:
  %0 = getelementptr inbounds i8, ptr %in, i64 8
  %m_line.i.i = getelementptr inbounds i8, ptr %in, i64 12
  %in.val.pre.i = load i32, ptr %0, align 8
  br label %while.cond.i

while.cond.i:                                     ; preds = %while.cond.i.backedge, %entry
  %1 = phi i32 [ %in.val.pre.i, %entry ], [ %call.i.i, %while.cond.i.backedge ]
  switch i32 %1, label %_ZL15skip_whitespaceIN6dimacs13stream_bufferEEvRT_.exit [
    i32 32, label %while.body.i
    i32 13, label %while.body.i
    i32 12, label %while.body.i
    i32 11, label %while.body.i
    i32 10, label %while.body.i
    i32 9, label %while.body.i
  ]

while.body.i:                                     ; preds = %while.cond.i, %while.cond.i, %while.cond.i, %while.cond.i, %while.cond.i, %while.cond.i
  %2 = load ptr, ptr %in, align 8
  %call.i.i = tail call noundef i32 @_ZNSi3getEv(ptr noundef nonnull align 8 dereferenceable(16) %2)
  store i32 %call.i.i, ptr %0, align 8
  %cmp.i.i = icmp eq i32 %call.i.i, 10
  br i1 %cmp.i.i, label %if.then.i.i, label %while.cond.i.backedge

if.then.i.i:                                      ; preds = %while.body.i
  %3 = load i32, ptr %m_line.i.i, align 4
  %inc.i.i = add i32 %3, 1
  store i32 %inc.i.i, ptr %m_line.i.i, align 4
  br label %while.cond.i.backedge

while.cond.i.backedge:                            ; preds = %if.then.i.i, %while.body.i
  br label %while.cond.i, !llvm.loop !4

_ZL15skip_whitespaceIN6dimacs13stream_bufferEEvRT_.exit: ; preds = %while.cond.i
  %cmp = icmp eq i32 %1, 45
  br i1 %cmp, label %if.then, label %if.else

if.then:                                          ; preds = %_ZL15skip_whitespaceIN6dimacs13stream_bufferEEvRT_.exit
  %4 = load ptr, ptr %in, align 8
  %call.i = tail call noundef i32 @_ZNSi3getEv(ptr noundef nonnull align 8 dereferenceable(16) %4)
  store i32 %call.i, ptr %0, align 8
  %cmp.i = icmp eq i32 %call.i, 10
  br i1 %cmp.i, label %if.then9.thread, label %if.end4

if.else:                                          ; preds = %_ZL15skip_whitespaceIN6dimacs13stream_bufferEEvRT_.exit
  %cmp2 = icmp eq i32 %1, 43
  br i1 %cmp2, label %if.then3, label %if.end4

if.then3:                                         ; preds = %if.else
  %5 = load ptr, ptr %in, align 8
  %call.i22 = tail call noundef i32 @_ZNSi3getEv(ptr noundef nonnull align 8 dereferenceable(16) %5)
  store i32 %call.i22, ptr %0, align 8
  %cmp.i24 = icmp eq i32 %call.i22, 10
  br i1 %cmp.i24, label %if.then9.thread, label %if.end4

if.then9.thread:                                  ; preds = %if.then3, %if.then
  %storemerge.in = load i32, ptr %m_line.i.i, align 4
  %storemerge = add i32 %storemerge.in, 1
  store i32 %storemerge, ptr %m_line.i.i, align 4
  br label %if.else22

if.end4:                                          ; preds = %if.then3, %if.then, %if.else
  %6 = phi i32 [ %call.i22, %if.then3 ], [ %call.i, %if.then ], [ %1, %if.else ]
  %cmp6 = icmp slt i32 %6, 48
  br i1 %cmp6, label %if.then9, label %lor.lhs.false

lor.lhs.false:                                    ; preds = %if.end4
  %cmp8 = icmp ugt i32 %6, 57
  br i1 %cmp8, label %land.lhs.true, label %while.body

if.then9:                                         ; preds = %if.end4
  %cmp11 = icmp sgt i32 %6, 19
  br i1 %cmp11, label %if.then14, label %if.else22

land.lhs.true:                                    ; preds = %lor.lhs.false
  %cmp13 = icmp ult i32 %6, 128
  br i1 %cmp13, label %if.then14, label %if.else22

if.then14:                                        ; preds = %if.then9, %land.lhs.true
  %call15 = tail call noundef nonnull align 8 dereferenceable(8) ptr @_ZStlsISt11char_traitsIcEERSt13basic_ostreamIcT_ES5_PKc(ptr noundef nonnull align 8 dereferenceable(8) %err, ptr noundef nonnull @.str.6)
  %7 = load i32, ptr %0, align 8
  %conv = trunc i32 %7 to i8
  %call17 = tail call noundef nonnull align 8 dereferenceable(8) ptr @_ZStlsISt11char_traitsIcEERSt13basic_ostreamIcT_ES5_c(ptr noundef nonnull align 8 dereferenceable(8) %call15, i8 noundef signext %conv)
  br label %if.end30

if.else22:                                        ; preds = %if.then9.thread, %land.lhs.true, %if.then9
  %call23 = tail call noundef nonnull align 8 dereferenceable(8) ptr @_ZStlsISt11char_traitsIcEERSt13basic_ostreamIcT_ES5_PKc(ptr noundef nonnull align 8 dereferenceable(8) %err, ptr noundef nonnull @.str.6)
  %8 = load i32, ptr %0, align 8
  %call25 = tail call noundef nonnull align 8 dereferenceable(8) ptr @_ZNSolsEi(ptr noundef nonnull align 8 dereferenceable(8) %call23, i32 noundef %8)
  br label %if.end30

if.end30:                                         ; preds = %if.else22, %if.then14
  %call25.sink = phi ptr [ %call25, %if.else22 ], [ %call17, %if.then14 ]
  %call26 = tail call noundef nonnull align 8 dereferenceable(8) ptr @_ZStlsISt11char_traitsIcEERSt13basic_ostreamIcT_ES5_PKc(ptr noundef nonnull align 8 dereferenceable(8) %call25.sink, ptr noundef nonnull @.str.7)
  %9 = load i32, ptr %m_line.i.i, align 4
  %call28 = tail call noundef nonnull align 8 dereferenceable(8) ptr @_ZNSolsEj(ptr noundef nonnull align 8 dereferenceable(8) %call26, i32 noundef %9)
  %call29 = tail call noundef nonnull align 8 dereferenceable(8) ptr @_ZStlsISt11char_traitsIcEERSt13basic_ostreamIcT_ES5_PKc(ptr noundef nonnull align 8 dereferenceable(8) %call28, ptr noundef nonnull @.str.8)
  %exception = tail call ptr @__cxa_allocate_exception(i64 1) #16
  tail call void @__cxa_throw(ptr %exception, ptr nonnull @_ZTIN6dimacs9lex_errorE, ptr null) #17
  unreachable

while.body:                                       ; preds = %lor.lhs.false, %_ZN6dimacs13stream_bufferppEv.exit46
  %10 = phi i32 [ %call.i40, %_ZN6dimacs13stream_bufferppEv.exit46 ], [ %6, %lor.lhs.false ]
  %val.050 = phi i32 [ %add, %_ZN6dimacs13stream_bufferppEv.exit46 ], [ 0, %lor.lhs.false ]
  %mul = mul nsw i32 %val.050, 10
  %sub = add nsw i32 %10, -48
  %add = add nsw i32 %sub, %mul
  %11 = load ptr, ptr %in, align 8
  %call.i40 = tail call noundef i32 @_ZNSi3getEv(ptr noundef nonnull align 8 dereferenceable(16) %11)
  store i32 %call.i40, ptr %0, align 8
  %cmp.i42 = icmp eq i32 %call.i40, 10
  br i1 %cmp.i42, label %_ZN6dimacs13stream_bufferppEv.exit46.thread, label %_ZN6dimacs13stream_bufferppEv.exit46

_ZN6dimacs13stream_bufferppEv.exit46.thread:      ; preds = %while.body
  %12 = load i32, ptr %m_line.i.i, align 4
  %inc.i45 = add i32 %12, 1
  store i32 %inc.i45, ptr %m_line.i.i, align 4
  br label %while.end

_ZN6dimacs13stream_bufferppEv.exit46:             ; preds = %while.body
  %13 = add i32 %call.i40, -48
  %or.cond = icmp ult i32 %13, 10
  br i1 %or.cond, label %while.body, label %while.end, !llvm.loop !18

while.end:                                        ; preds = %_ZN6dimacs13stream_bufferppEv.exit46, %_ZN6dimacs13stream_bufferppEv.exit46.thread
  %sub37 = sub nsw i32 0, %add
  %cond = select i1 %cmp, i32 %sub37, i32 %add
  ret i32 %cond
}